target datalayout = "e-m:e-p270:32:32-p271:32:32-p272:64:64-i64:64-i128:128-f80:128-n8:16:32:64-S128"
target triple = "x86_64-pc-linux-gnu"

%struct.commit_graph = type { ptr, i64, i8, i8, i32, %struct.object_id, ptr, ptr, i32, i32, ptr, ptr, ptr, ptr, ptr, ptr, i64, ptr, i64, ptr, i64, ptr, ptr, i64, ptr, ptr }
%struct.object_id = type { [32 x i8], i32 }

; Function Attrs: nounwind uwtable
define dso_local void @free_commit_graph(ptr noundef %0) #0 {
  %2 = alloca ptr, align 8
  %3 = alloca ptr, align 8
  store ptr %0, ptr %2, align 8, !tbaa !79
  br label %4

4:                                                ; preds = %23, %1
  %5 = load ptr, ptr %2, align 8, !tbaa !79
  %6 = icmp ne ptr %5, null
  br i1 %6, label %7, label %32

7:                                                ; preds = %4
  call void @llvm.lifetime.start.p0(i64 8, ptr %3) #12
  %8 = load ptr, ptr %2, align 8, !tbaa !79
  %9 = getelementptr inbounds nuw %struct.commit_graph, ptr %8, i32 0, i32 10
  %10 = load ptr, ptr %9, align 8, !tbaa !127
  store ptr %10, ptr %3, align 8, !tbaa !79
  %11 = load ptr, ptr %2, align 8, !tbaa !79
  %12 = getelementptr inbounds nuw %struct.commit_graph, ptr %11, i32 0, i32 0
  %13 = load ptr, ptr %12, align 8, !tbaa !92
  %14 = icmp ne ptr %13, null
  br i1 %14, label %15, label %23

15:                                               ; preds = %7
  %16 = load ptr, ptr %2, align 8, !tbaa !79
  %17 = getelementptr inbounds nuw %struct.commit_graph, ptr %16, i32 0, i32 0
  %18 = load ptr, ptr %17, align 8, !tbaa !92
  %19 = load ptr, ptr %2, align 8, !tbaa !79
  %20 = getelementptr inbounds nuw %struct.commit_graph, ptr %19, i32 0, i32 1
  %21 = load i64, ptr %20, align 8, !tbaa !93
  %22 = call i32 @munmap(ptr noundef %18, i64 noundef %21) #12
  br label %23

23:                                               ; preds = %15, %7
  %24 = load ptr, ptr %2, align 8, !tbaa !79
  %25 = getelementptr inbounds nuw %struct.commit_graph, ptr %24, i32 0, i32 6
  %26 = load ptr, ptr %25, align 8, !tbaa !124
  call void @free(ptr noundef %26) #12
  %27 = load ptr, ptr %2, align 8, !tbaa !79
  %28 = getelementptr inbounds nuw %struct.commit_graph, ptr %27, i32 0, i32 25
  %29 = load ptr, ptr %28, align 8, !tbaa !100
  call void @free(ptr noundef %29) #12
  %30 = load ptr, ptr %2, align 8, !tbaa !79
  call void @free(ptr noundef %30) #12
  %31 = load ptr, ptr %3, align 8, !tbaa !79
  store ptr %31, ptr %2, align 8, !tbaa !79
  call void @llvm.lifetime.end.p0(i64 8, ptr %3) #12
  br label %4, !llvm.loop !130

32:                                               ; preds = %4
  ret void
}