; Function Attrs: nounwind uwtable
define dso_local void @free_commit_graph(ptr noundef %0) local_unnamed_addr #0 {
  %.not11 = icmp eq ptr %0, null
  br i1 %.not11, label %._crit_edge, label %.lr.ph

.lr.ph:                                           ; preds = %1, %9
  %.012 = phi ptr [ %3, %9 ], [ %0, %1 ]
  %2 = getelementptr inbounds nuw i8, ptr %.012, i64 88
  %3 = load ptr, ptr %2, align 8, !tbaa !114
  %4 = load ptr, ptr %.012, align 8, !tbaa !83
  %.not10 = icmp eq ptr %4, null
  br i1 %.not10, label %9, label %5

5:                                                ; preds = %.lr.ph
  %6 = getelementptr inbounds nuw i8, ptr %.012, i64 8
  %7 = load i64, ptr %6, align 8, !tbaa !84
  %8 = tail call i32 @munmap(ptr noundef nonnull %4, i64 noundef %7) #24
  br label %9

9:                                                ; preds = %5, %.lr.ph
  %10 = getelementptr inbounds nuw i8, ptr %.012, i64 64
  %11 = load ptr, ptr %10, align 8, !tbaa !111
  tail call void @free(ptr noundef %11) #24
  %12 = getelementptr inbounds nuw i8, ptr %.012, i64 208
  %13 = load ptr, ptr %12, align 8, !tbaa !91
  tail call void @free(ptr noundef %13) #24
  tail call void @free(ptr noundef nonnull %.012) #24
  %.not = icmp eq ptr %3, null
  br i1 %.not, label %._crit_edge, label %.lr.ph, !llvm.loop !117

._crit_edge:                                      ; preds = %9, %1
  ret void
}